target datalayout = "e-m:e-p270:32:32-p271:32:32-p272:64:64-i64:64-i128:128-f80:128-n8:16:32:64-S128"
target triple = "x86_64-pc-linux-gnu"

%struct.fdt_header = type { i32, i32, i32, i32, i32, i32, i32, i32, i32, i32 }

; Function Attrs: inlinehint nounwind uwtable
define internal ptr @fdt_offset_ptr_(ptr noundef %0, i32 noundef %1) #2 {
  %3 = alloca ptr, align 8
  %4 = alloca i32, align 4
  store ptr %0, ptr %3, align 8, !tbaa !3
  store i32 %1, ptr %4, align 4, !tbaa !7
  %5 = load ptr, ptr %3, align 8, !tbaa !3
  %6 = load ptr, ptr %3, align 8, !tbaa !3
  %7 = getelementptr inbounds nuw %struct.fdt_header, ptr %6, i32 0, i32 2
  %8 = call i32 @fdt32_ld(ptr noundef %7)
  %9 = zext i32 %8 to i64
  %10 = getelementptr inbounds nuw i8, ptr %5, i64 %9
  %11 = load i32, ptr %4, align 4, !tbaa !7
  %12 = sext i32 %11 to i64
  %13 = getelementptr inbounds i8, ptr %10, i64 %12
  ret ptr %13
}

; Function Attrs: inlinehint nounwind uwtable
define internal i32 @fdt32_ld(ptr noundef %0) #2 {
  %2 = alloca ptr, align 8
  %3 = alloca ptr, align 8
  store ptr %0, ptr %2, align 8, !tbaa !9
  call void @llvm.lifetime.start.p0(i64 8, ptr %3) #5
  %4 = load ptr, ptr %2, align 8, !tbaa !9
  store ptr %4, ptr %3, align 8, !tbaa !11
  %5 = load ptr, ptr %3, align 8, !tbaa !11
  %6 = getelementptr inbounds i8, ptr %5, i64 0
  %7 = load i8, ptr %6, align 1, !tbaa !13
  %8 = zext i8 %7 to i32
  %9 = shl i32 %8, 24
  %10 = load ptr, ptr %3, align 8, !tbaa !11
  %11 = getelementptr inbounds i8, ptr %10, i64 1
  %12 = load i8, ptr %11, align 1, !tbaa !13
  %13 = zext i8 %12 to i32
  %14 = shl i32 %13, 16
  %15 = or i32 %9, %14
  %16 = load ptr, ptr %3, align 8, !tbaa !11
  %17 = getelementptr inbounds i8, ptr %16, i64 2
  %18 = load i8, ptr %17, align 1, !tbaa !13
  %19 = zext i8 %18 to i32
  %20 = shl i32 %19, 8
  %21 = or i32 %15, %20
  %22 = load ptr, ptr %3, align 8, !tbaa !11
  %23 = getelementptr inbounds i8, ptr %22, i64 3
  %24 = load i8, ptr %23, align 1, !tbaa !13
  %25 = zext i8 %24 to i32
  %26 = or i32 %21, %25
  call void @llvm.lifetime.end.p0(i64 8, ptr %3) #5
  ret i32 %26
}

; Function Attrs: nounwind uwtable
define ptr @fdt_offset_ptr(ptr noundef %0, i32 noundef %1, i32 noundef %2) #0 {
  %4 = alloca ptr, align 8
  %5 = alloca ptr, align 8
  %6 = alloca i32, align 4
  %7 = alloca i32, align 4
  %8 = alloca i32, align 4
  %9 = alloca i32, align 4
  store ptr %0, ptr %5, align 8, !tbaa !3
  store i32 %1, ptr %6, align 4, !tbaa !7
  store i32 %2, ptr %7, align 4, !tbaa !7
  call void @llvm.lifetime.start.p0(i64 4, ptr %8) #5
  %10 = load i32, ptr %6, align 4, !tbaa !7
  %11 = load ptr, ptr %5, align 8, !tbaa !3
  %12 = getelementptr inbounds nuw %struct.fdt_header, ptr %11, i32 0, i32 2
  %13 = call i32 @fdt32_ld(ptr noundef %12)
  %14 = add i32 %10, %13
  store i32 %14, ptr %8, align 4, !tbaa !7
  %15 = load i32, ptr %8, align 4, !tbaa !7
  %16 = load i32, ptr %6, align 4, !tbaa !7
  %17 = icmp ult i32 %15, %16
  br i1 %17, label %32, label %18

18:                                               ; preds = %3
  %19 = load i32, ptr %8, align 4, !tbaa !7
  %20 = load i32, ptr %7, align 4, !tbaa !7
  %21 = add i32 %19, %20
  %22 = load i32, ptr %8, align 4, !tbaa !7
  %23 = icmp ult i32 %21, %22
  br i1 %23, label %32, label %24

24:                                               ; preds = %18
  %25 = load i32, ptr %8, align 4, !tbaa !7
  %26 = load i32, ptr %7, align 4, !tbaa !7
  %27 = add i32 %25, %26
  %28 = load ptr, ptr %5, align 8, !tbaa !3
  %29 = getelementptr inbounds nuw %struct.fdt_header, ptr %28, i32 0, i32 1
  %30 = call i32 @fdt32_ld(ptr noundef %29)
  %31 = icmp ugt i32 %27, %30
  br i1 %31, label %32, label %33

32:                                               ; preds = %24, %18, %3
  store ptr null, ptr %4, align 8
  store i32 1, ptr %9, align 4
  br label %58

33:                                               ; preds = %24
  %34 = load ptr, ptr %5, align 8, !tbaa !3
  %35 = getelementptr inbounds nuw %struct.fdt_header, ptr %34, i32 0, i32 5
  %36 = call i32 @fdt32_ld(ptr noundef %35)
  %37 = icmp uge i32 %36, 17
  br i1 %37, label %38, label %54

38:                                               ; preds = %33
  %39 = load i32, ptr %6, align 4, !tbaa !7
  %40 = load i32, ptr %7, align 4, !tbaa !7
  %41 = add i32 %39, %40
  %42 = load i32, ptr %6, align 4, !tbaa !7
  %43 = icmp ult i32 %41, %42
  br i1 %43, label %52, label %44

44:                                               ; preds = %38
  %45 = load i32, ptr %6, align 4, !tbaa !7
  %46 = load i32, ptr %7, align 4, !tbaa !7
  %47 = add i32 %45, %46
  %48 = load ptr, ptr %5, align 8, !tbaa !3
  %49 = getelementptr inbounds nuw %struct.fdt_header, ptr %48, i32 0, i32 9
  %50 = call i32 @fdt32_ld(ptr noundef %49)
  %51 = icmp ugt i32 %47, %50
  br i1 %51, label %52, label %53

52:                                               ; preds = %44, %38
  store ptr null, ptr %4, align 8
  store i32 1, ptr %9, align 4
  br label %58

53:                                               ; preds = %44
  br label %54

54:                                               ; preds = %53, %33
  %55 = load ptr, ptr %5, align 8, !tbaa !3
  %56 = load i32, ptr %6, align 4, !tbaa !7
  %57 = call ptr @fdt_offset_ptr_(ptr noundef %55, i32 noundef %56)
  store ptr %57, ptr %4, align 8
  store i32 1, ptr %9, align 4
  br label %58

58:                                               ; preds = %54, %52, %32
  call void @llvm.lifetime.end.p0(i64 4, ptr %8) #5
  %59 = load ptr, ptr %4, align 8
  ret ptr %59
}