; Function Attrs: mustprogress nofree norecurse nosync nounwind willreturn memory(argmem: read) uwtable
define ptr @fdt_offset_ptr(ptr noundef readonly captures(ret: address, provenance) %0, i32 noundef %1, i32 noundef %2) local_unnamed_addr #0 {
  %4 = getelementptr inbounds nuw i8, ptr %0, i64 8
  %5 = load i8, ptr %4, align 1, !tbaa !3
  %6 = zext i8 %5 to i32
  %7 = shl nuw i32 %6, 24
  %8 = getelementptr inbounds nuw i8, ptr %0, i64 9
  %9 = load i8, ptr %8, align 1, !tbaa !3
  %10 = zext i8 %9 to i32
  %11 = shl nuw nsw i32 %10, 16
  %12 = or disjoint i32 %11, %7
  %13 = getelementptr inbounds nuw i8, ptr %0, i64 10
  %14 = load i8, ptr %13, align 1, !tbaa !3
  %15 = zext i8 %14 to i32
  %16 = shl nuw nsw i32 %15, 8
  %17 = or disjoint i32 %12, %16
  %18 = getelementptr inbounds nuw i8, ptr %0, i64 11
  %19 = load i8, ptr %18, align 1, !tbaa !3
  %20 = zext i8 %19 to i32
  %21 = or disjoint i32 %17, %20
  %22 = add i32 %21, %1
  %23 = icmp ult i32 %22, %1
  br i1 %23, label %104, label %24

24:                                               ; preds = %3
  %25 = add i32 %22, %2
  %26 = icmp ult i32 %25, %22
  br i1 %26, label %104, label %27

27:                                               ; preds = %24
  %28 = getelementptr inbounds nuw i8, ptr %0, i64 4
  %29 = load i8, ptr %28, align 1, !tbaa !3
  %30 = zext i8 %29 to i32
  %31 = shl nuw i32 %30, 24
  %32 = getelementptr inbounds nuw i8, ptr %0, i64 5
  %33 = load i8, ptr %32, align 1, !tbaa !3
  %34 = zext i8 %33 to i32
  %35 = shl nuw nsw i32 %34, 16
  %36 = or disjoint i32 %35, %31
  %37 = getelementptr inbounds nuw i8, ptr %0, i64 6
  %38 = load i8, ptr %37, align 1, !tbaa !3
  %39 = zext i8 %38 to i32
  %40 = shl nuw nsw i32 %39, 8
  %41 = or disjoint i32 %36, %40
  %42 = getelementptr inbounds nuw i8, ptr %0, i64 7
  %43 = load i8, ptr %42, align 1, !tbaa !3
  %44 = zext i8 %43 to i32
  %45 = or disjoint i32 %41, %44
  %46 = icmp ugt i32 %25, %45
  br i1 %46, label %104, label %47

47:                                               ; preds = %27
  %48 = getelementptr inbounds nuw i8, ptr %0, i64 20
  %49 = load i8, ptr %48, align 1, !tbaa !3
  %50 = zext i8 %49 to i32
  %51 = shl nuw i32 %50, 24
  %52 = getelementptr inbounds nuw i8, ptr %0, i64 21
  %53 = load i8, ptr %52, align 1, !tbaa !3
  %54 = zext i8 %53 to i32
  %55 = shl nuw nsw i32 %54, 16
  %56 = or disjoint i32 %55, %51
  %57 = getelementptr inbounds nuw i8, ptr %0, i64 22
  %58 = load i8, ptr %57, align 1, !tbaa !3
  %59 = zext i8 %58 to i32
  %60 = shl nuw nsw i32 %59, 8
  %61 = or disjoint i32 %56, %60
  %62 = getelementptr inbounds nuw i8, ptr %0, i64 23
  %63 = load i8, ptr %62, align 1, !tbaa !3
  %64 = zext i8 %63 to i32
  %65 = or disjoint i32 %61, %64
  %66 = icmp ugt i32 %65, 16
  br i1 %66, label %67, label %90

67:                                               ; preds = %47
  %68 = add i32 %2, %1
  %69 = icmp ult i32 %68, %1
  br i1 %69, label %104, label %70

70:                                               ; preds = %67
  %71 = getelementptr inbounds nuw i8, ptr %0, i64 36
  %72 = load i8, ptr %71, align 1, !tbaa !3
  %73 = zext i8 %72 to i32
  %74 = shl nuw i32 %73, 24
  %75 = getelementptr inbounds nuw i8, ptr %0, i64 37
  %76 = load i8, ptr %75, align 1, !tbaa !3
  %77 = zext i8 %76 to i32
  %78 = shl nuw nsw i32 %77, 16
  %79 = or disjoint i32 %78, %74
  %80 = getelementptr inbounds nuw i8, ptr %0, i64 38
  %81 = load i8, ptr %80, align 1, !tbaa !3
  %82 = zext i8 %81 to i32
  %83 = shl nuw nsw i32 %82, 8
  %84 = or disjoint i32 %79, %83
  %85 = getelementptr inbounds nuw i8, ptr %0, i64 39
  %86 = load i8, ptr %85, align 1, !tbaa !3
  %87 = zext i8 %86 to i32
  %88 = or disjoint i32 %84, %87
  %89 = icmp ugt i32 %68, %88
  br i1 %89, label %104, label %90

90:                                               ; preds = %70, %47
  %91 = zext i8 %5 to i64
  %92 = shl nuw nsw i64 %91, 24
  %93 = zext i8 %9 to i64
  %94 = shl nuw nsw i64 %93, 16
  %95 = or disjoint i64 %94, %92
  %96 = zext i8 %14 to i64
  %97 = shl nuw nsw i64 %96, 8
  %98 = or disjoint i64 %95, %97
  %99 = zext i8 %19 to i64
  %100 = or disjoint i64 %98, %99
  %101 = getelementptr inbounds nuw i8, ptr %0, i64 %100
  %102 = sext i32 %1 to i64
  %103 = getelementptr inbounds i8, ptr %101, i64 %102
  br label %104

104:                                              ; preds = %67, %70, %3, %24, %27, %90
  %.0 = phi ptr [ %103, %90 ], [ null, %27 ], [ null, %24 ], [ null, %3 ], [ null, %70 ], [ null, %67 ]
  ret ptr %.0
}